MPASM  5.11                          MAIN.ASM   10-3-2007  1:58:01         PAGE  1


LOC  OBJECT CODE     LINE SOURCE TEXT
  VALUE

                      00001 ; $Id: main.asm,v 1.3 2007/10/03 04:41:50 tgipson Exp $
                      00002 ;
                      00003 ; 10F 1-Wire Receiver + Indicator
                      00004 
                      00005 ; Config bits: WDT ON, MCLR as GP3, CodeProtect OFF.
                      00006 
                      00007 ; c08
                      00008 
                      00009 ; WARNING: There is no 'BZ' (Branch if Zero) instruction on PIC10! The assembler fakes it using 'BTFSS S
                            TATUS,Z', which
                      00010 ; will NOT work as intended unless immediately followed by an unconditional branch.
                      00011 
                      00012 ; ----------------------
                      00013 
                      00014 #define         MYADDR          0x19            ; Personalized address to be stored in THIS chip. Each c
                            hip on the bus
                      00015                                                                         ; must have a unique address to 
                            be controlled independently...
                      00016 
                      00017 #define         COMM_ANODE      0x01            ; If indicator is common-anode, polarity of output drive
                             and idle are inverted
                      00018 
                      00019 ; ----------------------
                      00020 
                      00021 
                      00022 
                      00023         list    p=10f200
                      00024         #include "p10f200.inc"
                      00001         LIST
                      00002 ; P10F200.INC  Standard Header File, Version 1.02    Microchip Technology, Inc.
                      00125         LIST
                      00025 
                      00026 
0000                  00027         org 0x00                        ; effective reset vector
                      00028 ;       movwf   OSCCAL          ; set factory oscillator calibration value from last program memory byte
                             (set as MOVLW H'xx' from factory)
0000                  00029 start:
0000   0004           00030         clrwdt
0001   0CC8           00031         movlw   B'11001000'     ; wakeup-on-change DISabled, pullups DISabled, timer0 clk internal, sour
                            ce edge low-to-high (don't care), prescaler assigned to WDT, /1
                      00032 ;       movlw   B'11001111'     ; wakeup-on-change DISabled, pullups DISabled, timer0 clk internal, sour
                            ce edge low-to-high (don't care), prescaler assigned to WDT, /128
0002   0002           00033         OPTION
                      00034 
0003   0C00           00035         movlw   B'00000000'
0004   0006           00036         TRIS    GPIO
0005   0066           00037         clrf    GPIO
                      00038 
0006   0526           00039         bsf             GPIO, GREEN             ; Check for reset...
0007   0546           00040         bsf             GPIO, BLUE
0008   0406           00041         bcf             GPIO, RED
                      00042 
0009   0072           00043         clrf    PWM_R
MPASM  5.11                          MAIN.ASM   10-3-2007  1:58:01         PAGE  2


LOC  OBJECT CODE     LINE SOURCE TEXT
  VALUE

000A   0073           00044         clrf    PWM_G
000B   0074           00045         clrf    PWM_B
                      00046 
000C   0075           00047         clrf    GROUPADDR
                      00048 
000D   0CFE           00049         movlw   B'11111110'             ; debug - see if light lights / program running
000E   0032           00050         movwf   PWM_R                   ;
000F   0CFE           00051         movlw   B'11111110'
0010   0033           00052         movwf   PWM_G                   ;
0011   0CFE           00053         movlw   B'11111110'
0012   0034           00054         movwf   PWM_B                   ;
                      00055 
                      00056 
0013                  00057 reset_sync:                                     ; Sync with extended STOP condition
0013   0666           00058         btfsc   GPIO, SDI               ; SDI low?
0014   0A13           00059         goto    reset_sync              ; if no
                      00060 
0015   0004           00061         clrwdt
0016   0061           00062         clrf    TMR0                    ; begin timing stop condition
0017                  00063 reset_sync_wait1:
0017   0666           00064         btfsc   GPIO, SDI               ; line still low?
0018   0A13           00065         goto    reset_sync              ; if no
0019   06E1           00066         btfsc   TMR0, 7                 ; timer rollxxxer?
001A   0A17           00067         goto    reset_sync_wait1; if no
                      00068 
001B   0061           00069         clrf    TMR0                    ; reset timer
001C                  00070 reset_sync_wait2:
001C   0666           00071         btfsc   GPIO, SDI               ; line still low?
001D   0A13           00072         goto    reset_sync              ; if no
001E   06E1           00073         btfsc   TMR0, 7                 ; timer rollxxxer?
001F   0A1C           00074         goto    reset_sync_wait2; if no
                      00075                                                         ; else - fall through and begin running...
                      00076 
0020                  00077 main:
0020   0004           00078         clrwdt
0021   0980           00079         call    pwm                             ; 25 clocks, including call. 11 inc. call if separated..
                            .
0022   0766           00080         btfss   GPIO, SDI               ; start bit?
0023   0A20           00081         goto    main
                      00082 ;       goto    getcmd                  ; fake 'call' - shallow stack
                      00083                                                         ; Fall through...
                      00084 
                      00085 
                      00086 
                      00087 
                      00088 ; ---------------------------------------------------
                      00089 ; Check for incoming cmd byte on SDI. If cmd (start condition), receive the cmd packet to CMDBUF.
                      00090 ; ASSUMPTION: Start condition is long enough that the longest possible complete loop will still get us b
                            ack here in time to catch it.
                      00091 
0024                  00092 getcmd:
0024   0C16           00093         movlw   CMDBUF                  ; init buffer ptr
0025   0024           00094         movwf   FSR                             ;
MPASM  5.11                          MAIN.ASM   10-3-2007  1:58:01         PAGE  3


LOC  OBJECT CODE     LINE SOURCE TEXT
  VALUE

                      00095 
0026                  00096 getstartbit:
0026   0666           00097         btfsc   GPIO, SDI               ; spinlock until start condition released
0027   0A26           00098         goto    getstartbit             ; ...
                      00099 
                      00100 ;       clrwdt
                      00101 
0028   0951           00102         call    getbyte                 ; addr
                      00103 ;       comf    INDF,f  ;hack: bits inverted?
0029   02A4           00104         incf    FSR,f
002A   0951           00105         call    getbyte                 ; cmd
                      00106 ;       comf    INDF,f  ;hack: bits inverted?
                      00107 
                      00108 
                      00109         ; check address to see if it's anything we respond to...
002B   0C16           00110         movlw   CMDBUF                  ; point to 1st byte of CMDBUF (addr)
002C   0024           00111         movwf   FSR                             ; ...
                      00112 
002D   0C00           00113         movlw   H'00'                   ; General Call addr? (everybody! everybody!)
002E   0180           00114         xorwf   INDF, w                 ;
002F   0643           00115         btfsc   STATUS, Z
0030   0A3A           00116         goto    processcmd
                      00117 
                      00118 
                      00119 
0031   0C19           00120         movlw   MYADDR                  ; This chip's addr? (NOTE: Hard-coded literal)
0032   0180           00121         xorwf   INDF, W                 ;
0033   0643           00122         btfsc   STATUS, Z
0034   0A3A           00123         goto    processcmd
                      00124 
                      00125 
0035   0215           00126         movf    GROUPADDR, w    ; This chip's Group addr? (NOTE: Variable)
0036   0180           00127         xorwf   INDF, W                 ;
0037   0643           00128         btfsc   STATUS, Z
0038   0A3A           00129         goto    processcmd
                      00130 
0039   0A20           00131         goto    main                    ; else - not for us...
                      00132 
003A                  00133 processcmd:
                      00134 
                      00135 ;       movlw   H'FF'           ; debug
                      00136 ;       movwf   PWM_B           ; - check for getting here
                      00137 
003A   0C17           00138         movlw   CMDBUF+1                ; point to 2nd byte of CMDBUF (cmd)
003B   0024           00139         movwf   FSR                             ; ...
                      00140 
003C   0680           00141         btfsc   INDF, 4                 ; Extended Command bit
003D   0A45           00142         goto    extcmd
                      00143 
003E   06E0           00144         btfsc   INDF, 7                 ; R cmd
003F   0960           00145         call    processcmd_r
0040   06C0           00146         btfsc   INDF, 6                 ; G cmd
0041   0964           00147         call    processcmd_g
MPASM  5.11                          MAIN.ASM   10-3-2007  1:58:01         PAGE  4


LOC  OBJECT CODE     LINE SOURCE TEXT
  VALUE

0042   06A0           00148         btfsc   INDF, 5                 ; B cmd
0043   0968           00149         call    processcmd_b
0044   0A20           00150         goto    main                    ; done
                      00151 
                      00152 
0045                  00153 extcmd:                                         ; Extended commands are handled here
                      00154 ;       movlw   b'11111110'             ; debug
                      00155 ;       movwf   PWM_R                   ; debug
                      00156 
0045   0200           00157         movf    INDF, w                 ; Decode cmd to SCRATCH0
0046   0EE0           00158         andlw   B'11100000'             ; ...
0047   0030           00159         movwf   SCRATCH0                ;
                      00160 
0048   0C00           00161         movlw   H'00'
0049   0190           00162         xorwf   SCRATCH0, w
004A   0643           00163         btfsc   STATUS, Z
004B   0A4D           00164         goto    setgroup
                      00165 ;       movlw   b'11111110'             ; debug
                      00166 ;       movwf   PWM_G                   ; debug
                      00167         ; ... other extended commands here ...
                      00168 
004C   0A20           00169         goto    main
                      00170 
                      00171 
                      00172 
004D                  00173 setgroup:
004D   0200           00174         movf    INDF, w
004E   0E0F           00175         andlw   B'00001111'
004F   0035           00176         movwf   GROUPADDR               ; store low nibble of extended cmd as group address
                      00177 ;       movlw   b'11111110'             ; debug
                      00178 ;       movwf   PWM_B                   ; debug
0050   0A20           00179         goto    main
                      00180 
                      00181 
                      00182 
                      00183 ; -------------------------------
                      00184 ; Receive a complete byte (sans start condition) from the 1-wire bus.
                      00185 ; When we've gotten here, start condition already set and just released.
                      00186 
0051                  00187 getbyte:
0051   0C08           00188         movlw   H'08'                           ; rotate this many times
0052   0031           00189         movwf   COUNT                           ;
                      00190 
0053                  00191 getbit_firsthalf:
0053   0061           00192         clrf    TMR0                            ; begin timing low half of bit
                      00193 ; FIXME: temporarily removed for testing
                      00194 ;       call    pwm                                     ; ONCE, in dead time. xxx clocks, including call
                            ; +xxx after bit received
0054                  00195 getbit_firsthalf_end:
0054   0766           00196         btfss   GPIO, SDI                       ; wait for SDI to go high - has it?
0055   0A54           00197         goto    getbit_firsthalf_end; if no
                      00198 
0056   0261           00199         comf    TMR0, f                         ; if yes - begin timing high half of bit
MPASM  5.11                          MAIN.ASM   10-3-2007  1:58:01         PAGE  5


LOC  OBJECT CODE     LINE SOURCE TEXT
  VALUE

                      00200 
0057                  00201 getbit_secondhalf:
0057   0666           00202         btfsc   GPIO, SDI                       ; now waiting for bit to go low again - has it?
0058   0A57           00203         goto    getbit_secondhalf       ; if no
                      00204 
0059   0201           00205         movf    TMR0, w                         ; get timer's value
005A   0030           00206         movwf   SCRATCH0                        ; .. to scratch reg (ghetto chip doesn't allow operation
                             on WREG..?)
005B   0370           00207         rlf             SCRATCH0,f                      ; rotate MSB of TMR0 into 'C'arry (don't care ab
                            out other bits)
005C   0360           00208         rlf             INDF,f                          ; shift bit in 'C'arry into currently-addressed 
                            buffer position
005D   02F1           00209         decfsz  COUNT,f                         ; got all bits?
005E   0A53           00210         goto    getbit_firsthalf        ; if no - wait for next
005F   0800           00211         retlw   0                                       ; else - done
                      00212 
                      00213 
                      00214 ; ---------------------------------------------------
                      00215 ; Process command byte in buffer for the given color
                      00216 
0060                  00217 processcmd_r:
0060   096C           00218         call    setpwm
                      00219         #if (COMM_ANODE == 1)           ; Switched in for common-anode drive
0061   0FFF           00220         xorlw   B'11111111'                     ; complement WREG directly (comm. anode: line LOW means 
                            LED is lit)
                      00221         #endif
0062   0032           00222         movwf   PWM_R
0063   0800           00223         retlw   0
0064                  00224 processcmd_g:
0064   096C           00225         call    setpwm
                      00226         #if (COMM_ANODE == 1)           ; Switched in for common-anode drive
0065   0FFF           00227         xorlw   B'11111111'                     ; complement WREG directly (comm. anode: line LOW means 
                            LED is lit)
                      00228         #endif
0066   0033           00229         movwf   PWM_G
0067   0800           00230         retlw   0
0068                  00231 processcmd_b:
0068   096C           00232         call    setpwm
                      00233         #if (COMM_ANODE == 1)           ; Switched in for common-anode drive
0069   0FFF           00234         xorlw   B'11111111'                     ; complement WREG directly (comm. anode: line LOW means 
                            LED is lit)
                      00235         #endif
006A   0034           00236         movwf   PWM_B
006B   0800           00237         retlw   0
                      00238 
                      00239 
                      00240 ; ---------------------------------------------------
                      00241 ; Given low 4 bits of cmd in INDF, return that many '1's in WREG.
                      00242 ;
                      00243 ; Want to return a value containing the number of '1's specified in the intensity
                      00244 ; value. But want to spread them out for faster switching and less perceivable flicker.
006C                  00245 setpwm:
006C   0200           00246         movf    INDF, w         ; cmd value
MPASM  5.11                          MAIN.ASM   10-3-2007  1:58:01         PAGE  6


LOC  OBJECT CODE     LINE SOURCE TEXT
  VALUE

006D   0E0F           00247         andlw   B'00001111'     ; mask off bogus bits
006E   01E2           00248         addwf   PCL, f
006F   0800           00249         retlw   B'00000000' ; 0x00
0070   0801           00250         retlw   B'00000001' ; 0x01
0071   0811           00251         retlw   B'00010001' ; 0x02
0072   0849           00252         retlw   B'01001001' ; 0x03
0073   0855           00253         retlw   B'01010101' ; 0x04
0074   0857           00254         retlw   B'01010111' ; 0x05
0075   0877           00255         retlw   B'01110111' ; 0x06
0076   087F           00256         retlw   B'01111111' ; 0x07
0077   08FF           00257         retlw   B'11111111' ; 0x08      ; last valid value
0078   08FF           00258         retlw   B'11111111' ; 0x09      ; Should not be sent any values this high; we can't represent th
                            em in the PWM registers anyway
0079   08FF           00259         retlw   B'11111111' ; 0x0A
007A   08FF           00260         retlw   B'11111111' ; 0x0B
007B   08FF           00261         retlw   B'11111111' ; 0x0C
007C   08FF           00262         retlw   B'11111111' ; 0x0D
007D   08FF           00263         retlw   B'11111111' ; 0x0E
007E   08FF           00264         retlw   B'11111111' ; 0x0F
                      00265 
007F   0800           00266         retlw   0x00            ; pure paranoia
                      00267 
                      00268 ; ---------------------------------------------------
                      00269 ; Perform one iteration/rotation of "poor man's PWM" for each color's register
                      00270 
                      00271 
0080                  00272 pwm:
                      00273                                                 ; ---------------
                      00274         if COMM_ANODE==0        ; Switched in for common-cathode drive
                      00275         rlf             PWM_R,f         ; FIXME: Separate r/g/b PWM loops, see below
                      00276         bcf             PWM_R, 0
                      00277         btfsc   STATUS, C
                      00278         bsf             PWM_R, 0
                      00279 
                      00280         bcf             GPIO, RED
                      00281         btfsc   STATUS, C
                      00282         bsf             GPIO, RED
                      00283 
                      00284         rlf             PWM_G,f
                      00285         bcf             PWM_G, 0
                      00286         btfsc   STATUS, C
                      00287         bsf             PWM_G, 0
                      00288 
                      00289         bcf             GPIO, GREEN
                      00290         btfsc   STATUS, C
                      00291         bsf             GPIO, GREEN
                      00292 
                      00293         rlf             PWM_B,f
                      00294         bcf             PWM_B, 0
                      00295         btfsc   STATUS, C
                      00296         bsf             PWM_B, 0
                      00297 
                      00298         bcf             GPIO, BLUE
MPASM  5.11                          MAIN.ASM   10-3-2007  1:58:01         PAGE  7


LOC  OBJECT CODE     LINE SOURCE TEXT
  VALUE

                      00299         btfsc   STATUS, C
                      00300         bsf             GPIO, BLUE
                      00301         endif
                      00302                                                         ; ---------------------
                      00303         if COMM_ANODE == 1              ; Switched in for common-anode drive
0080                  00304 pwm_r:
0080   0372           00305         rlf             PWM_R,f                 ; Rotate next PWM value into 'C'arry
0081   0412           00306         bcf             PWM_R, 0                ; This is whatever random junk used to be in there, so c
                            lear it...
0082   0603           00307         btfsc   STATUS, C               ; catch the bit that just fell off the left
0083   0512           00308         bsf             PWM_R, 0                ; and stuff it back on the right.
                      00309 
0084   0506           00310         bsf             GPIO, RED               ; Now set the port line according to the same 'C'arry co
                            ntents.
0085   0703           00311         btfss   STATUS, C               ; ... Remember kids, comm. anode means '1' = 'off'.
0086   0406           00312         bcf             GPIO, RED               ; .
                      00313 ;       retlw   0
0087                  00314 pwm_g:
0087   0373           00315         rlf             PWM_G,f
0088   0413           00316         bcf             PWM_G, 0
0089   0603           00317         btfsc   STATUS, C
008A   0513           00318         bsf             PWM_G, 0
                      00319 
008B   0526           00320         bsf             GPIO, GREEN
008C   0703           00321         btfss   STATUS, C
008D   0426           00322         bcf             GPIO, GREEN
                      00323 ;       retlw   0
008E                  00324 pwm_b:
008E   0374           00325         rlf             PWM_B,f
008F   0414           00326         bcf             PWM_B, 0
0090   0603           00327         btfsc   STATUS, C
0091   0514           00328         bsf             PWM_B, 0
                      00329 
0092   0546           00330         bsf             GPIO, BLUE
0093   0703           00331         btfss   STATUS, C
0094   0446           00332         bcf             GPIO, BLUE
                      00333         endif
                      00334 
0095   0800           00335         retlw   0
                      00336 
                      00337 ; -------------------
                      00338 
                      00339 
                      00340 ; Command packet format: <start> <addr[7..0]><cmd[7..0]>
                      00341 ; Start bit is HIGH and lasts for longer than the longest possible loop run, so that all devices are gua
                            ranteed to catch it.
                      00342 ; Subsequent bits are HIGH for either <128 timer clocks (logic 0) or >128 clocks (logic 1) ... can shift
                             timer0 MSB as detected bit
                      00343 ; ... assuming clocks aren't *insanely* skewed from one device to the next.
                      00344 
                      00345 
                      00346 ; Cmd BYTE format: RGBCIIII
                      00347 ; RGB: Which color(s) cmd applies to
MPASM  5.11                          MAIN.ASM   10-3-2007  1:58:01         PAGE  8


LOC  OBJECT CODE     LINE SOURCE TEXT
  VALUE

                      00348 ; IIII: Set intensity (0 ~ 8)
                      00349 ; C: Indicates Extended Command as described below...
                      00350 
                      00351 ; --- Extended Commands ---
                      00352 ; 0001xxxx : Set Group Addr to value in xxxx
                      00353 
                      00354 #include "vars.inc"
                      00001 ; Vars
                      00002 
                      00003 
                      00004         cblock  0x10
                      00005 
  00000010            00006         SCRATCH0        ; general purpose scratch register
  00000011            00007         COUNT           ; bits-in-byte countdown
                      00008 
  00000012            00009         PWM_R           ; poor-man's PWM registers: '1' bits will be rotated around in them
  00000013            00010         PWM_G           ;
  00000014            00011         PWM_B           ;
                      00012 
  00000015            00013         GROUPADDR       ; Storage byte for Group Address
                      00014 
  00000016            00015         CMDBUF          ; buffer start - must be at end of vars
  00000017            00016         CMDBUF2         ; 2nd byte of cmd
                      00017         endc
                      00355 #include "defs.inc"
                      00001 
                      00002 
  00000003            00003 SDI             equ     3               ; FIXME: All bit defs
                      00004 
  00000000            00005 RED             equ     0
  00000001            00006 GREEN   equ     1
  00000002            00007 BLUE    equ     2
                      00356 
                      00357 ; NOTES: This eats almost 1/4 of the code space; remove or shorten if things get tight.
                      00358 ; 'DT' stores in a (1 byte -> 1 word) readable format; probably decodes as RETLW xx
0096                  00359 str_version:
0096   0824 0849 0864 00360         DT      "$Id: main.asm,v 1.3 2007/10/03 04:41:50 tgipson Exp $"
       083A 0820 086D 
       0861 0869 086E 
       082E 0861 0873 
       086D 082C 0876 
       0820 0831 082E 
       0833 0820 0832 
       0830 0830 0837 
       082F 0831 0830 
       082F 0830 0833 
       0820 0830 0834 
       083A 0834 0831 
       083A 0835 0830 
       0820 0874 0867 
       0869 0870 0873 
       086F 086E 0820 
       0845 087
MPASM  5.11                          MAIN.ASM   10-3-2007  1:58:01         PAGE  9


LOC  OBJECT CODE     LINE SOURCE TEXT
  VALUE

                      00361 
                      00362         end
MPASM  5.11                          MAIN.ASM   10-3-2007  1:58:01         PAGE 10


SYMBOL TABLE
  LABEL                             VALUE 

BLUE                              00000002
C                                 00000000
CAL0                              00000001
CAL1                              00000002
CAL2                              00000003
CAL3                              00000004
CAL4                              00000005
CAL5                              00000006
CAL6                              00000007
CMDBUF                            00000016
CMDBUF2                           00000017
COMM_ANODE                        0x01
COUNT                             00000011
DC                                00000001
F                                 00000001
FOSC4                             00000000
FSR                               00000004
GP0                               00000000
GP1                               00000001
GP2                               00000002
GP3                               00000003
GPIO                              00000006
GPWUF                             00000007
GREEN                             00000001
GROUPADDR                         00000015
INDF                              00000000
MYADDR                            0x19
NOT_GPPU                          00000006
NOT_GPWU                          00000007
NOT_PD                            00000003
NOT_TO                            00000004
OSCCAL                            00000005
PCL                               00000002
PS0                               00000000
PS1                               00000001
PS2                               00000002
PSA                               00000003
PWM_B                             00000014
PWM_G                             00000013
PWM_R                             00000012
RED                               00000000
SCRATCH0                          00000010
SDI                               00000003
STATUS                            00000003
T0CS                              00000005
T0SE                              00000004
TMR0                              00000001
W                                 00000000
Z                                 00000002
_CP_OFF                           00000FFF
_CP_ON                            00000FF7
_IntRC_OSC                        00000FFF
_MCLRE_OFF                        00000FEF
MPASM  5.11                          MAIN.ASM   10-3-2007  1:58:01         PAGE 11


SYMBOL TABLE
  LABEL                             VALUE 

_MCLRE_ON                         00000FFF
_WDT_OFF                          00000FFB
_WDT_ON                           00000FFF
__10F200                          00000001
extcmd                            00000045
getbit_firsthalf                  00000053
getbit_firsthalf_end              00000054
getbit_secondhalf                 00000057
getbyte                           00000051
getcmd                            00000024
getstartbit                       00000026
main                              00000020
processcmd                        0000003A
processcmd_b                      00000068
processcmd_g                      00000064
processcmd_r                      00000060
pwm                               00000080
pwm_b                             0000008E
pwm_g                             00000087
pwm_r                             00000080
reset_sync                        00000013
reset_sync_wait1                  00000017
reset_sync_wait2                  0000001C
setgroup                          0000004D
setpwm                            0000006C
start                             00000000
str_version                       00000096


MEMORY USAGE MAP ('X' = Used,  '-' = Unused)

0000 : XXXXXXXXXXXXXXXX XXXXXXXXXXXXXXXX XXXXXXXXXXXXXXXX XXXXXXXXXXXXXXXX
0040 : XXXXXXXXXXXXXXXX XXXXXXXXXXXXXXXX XXXXXXXXXXXXXXXX XXXXXXXXXXXXXXXX
0080 : XXXXXXXXXXXXXXXX XXXXXXXXXXXXXXXX XXXXXXXXXXXXXXXX XXXXXXXXXXXXXXXX
00C0 : XXXXXXXXXXX----- ---------------- ---------------- ----------------

All other memory blocks unused.

Program Memory Words Used:   203
Program Memory Words Free:    53


Errors   :     0
Warnings :     0 reported,     0 suppressed
Messages :     0 reported,     0 suppressed

